; Function Attrs: mustprogress uwtable
define hidden void @_ZN3smt7context14mk_gate_clauseEN3sat7literalES2_S2_S2_(ptr noundef nonnull align 8 dereferenceable(11616) %this, i32 %l1.coerce, i32 %l2.coerce, i32 %l3.coerce, i32 %l4.coerce) local_unnamed_addr #3 align 2 {
entry:
  %ls = alloca [4 x %"class.sat::literal"], align 16
  store i32 %l1.coerce, ptr %ls, align 16
  %arrayinit.element = getelementptr inbounds i8, ptr %ls, i64 4
  store i32 %l2.coerce, ptr %arrayinit.element, align 4
  %arrayinit.element5 = getelementptr inbounds i8, ptr %ls, i64 8
  store i32 %l3.coerce, ptr %arrayinit.element5, align 8
  %arrayinit.element6 = getelementptr inbounds i8, ptr %ls, i64 12
  store i32 %l4.coerce, ptr %arrayinit.element6, align 4
  call void @_ZN3smt7context14mk_gate_clauseEjPN3sat7literalE(ptr noundef nonnull align 8 dereferenceable(11616) %this, i32 noundef 4, ptr noundef nonnull %ls)
  ret void
}